target datalayout = "e-m:e-p270:32:32-p271:32:32-p272:64:64-i64:64-i128:128-f80:128-n8:16:32:64-S128"
target triple = "x86_64-pc-linux-gnu"

%struct.IDAMemRec = type { double, ptr, ptr, i32, double, double, ptr, i32, ptr, ptr, i32, ptr, ptr, i32, i32, double, double, ptr, i32, i32, i32, ptr, ptr, i32, ptr, ptr, ptr, i32, double, i32, i32, double, ptr, ptr, i32, ptr, ptr, i32, i32, i32, double, ptr, ptr, [6 x ptr], [6 x double], [6 x double], [6 x double], [6 x double], [6 x double], ptr, ptr, ptr, ptr, ptr, ptr, ptr, ptr, ptr, ptr, ptr, ptr, ptr, ptr, ptr, [6 x ptr], ptr, ptr, ptr, ptr, [6 x ptr], ptr, ptr, ptr, ptr, ptr, ptr, ptr, ptr, ptr, ptr, ptr, ptr, ptr, ptr, [6 x ptr], ptr, ptr, ptr, ptr, ptr, double, ptr, ptr, i32, i32, i32, i32, i32, i32, i32, double, double, double, i32, double, i32, i32, i32, i32, double, double, double, double, double, double, double, double, double, double, double, double, double, double, i32, i32, i32, i32, i32, i64, double, i32, i64, i64, i64, i64, i64, i64, i64, i64, i64, i64, i64, i64, i64, i64, i64, i64, i64, i64, i64, i64, i64, i64, i64, i64, ptr, ptr, ptr, i32, i32, i32, i32, i32, i32, i32, i32, i32, i32, i32, i32, i32, ptr, ptr, ptr, ptr, ptr, ptr, i32, i32, i32, i32, i32, i32, double, double, double, ptr, i32, ptr, ptr, double, double, double, ptr, ptr, ptr, double, double, i32, i32, i64, ptr, i32, i32, ptr, i32 }
%struct.IDADlsMemRec = type { i32, i64, i64, i64, i64, i32, ptr, ptr, ptr, ptr, ptr, ptr, i64, i64, i64 }

@.str = private unnamed_addr constant [8 x i8] c"IDASDLS\00", align 1
@.str.2 = private unnamed_addr constant [27 x i8] c"Integrator memory is NULL.\00", align 1
@.str.3 = private unnamed_addr constant [30 x i8] c"Linear solver memory is NULL.\00", align 1
@.str.5 = private unnamed_addr constant [19 x i8] c"IDADlsGetWorkSpace\00", align 1

; Function Attrs: nounwind uwtable
define i32 @IDADlsGetWorkSpace(ptr noundef %0, ptr noundef %1, ptr noundef %2) #0 {
  %4 = alloca i32, align 4
  %5 = alloca ptr, align 8
  %6 = alloca ptr, align 8
  %7 = alloca ptr, align 8
  %8 = alloca ptr, align 8
  %9 = alloca ptr, align 8
  %10 = alloca i32, align 4
  store ptr %0, ptr %5, align 8, !tbaa !3
  store ptr %1, ptr %6, align 8, !tbaa !28
  store ptr %2, ptr %7, align 8, !tbaa !28
  call void @llvm.lifetime.start.p0(i64 8, ptr %8) #6
  call void @llvm.lifetime.start.p0(i64 8, ptr %9) #6
  %11 = load ptr, ptr %5, align 8, !tbaa !3
  %12 = icmp eq ptr %11, null
  br i1 %12, label %13, label %14

13:                                               ; preds = %3
  call void (ptr, i32, ptr, ptr, ptr, ...) @IDAProcessError(ptr noundef null, i32 noundef -1, ptr noundef @.str, ptr noundef @.str.5, ptr noundef @.str.2)
  store i32 -1, ptr %4, align 4
  store i32 1, ptr %10, align 4
  br label %68

14:                                               ; preds = %3
  %15 = load ptr, ptr %5, align 8, !tbaa !3
  store ptr %15, ptr %8, align 8, !tbaa !7
  %16 = load ptr, ptr %8, align 8, !tbaa !7
  %17 = getelementptr inbounds nuw %struct.IDAMemRec, ptr %16, i32 0, i32 176
  %18 = load ptr, ptr %17, align 8, !tbaa !9
  %19 = icmp eq ptr %18, null
  br i1 %19, label %20, label %22

20:                                               ; preds = %14
  %21 = load ptr, ptr %8, align 8, !tbaa !7
  call void (ptr, i32, ptr, ptr, ptr, ...) @IDAProcessError(ptr noundef %21, i32 noundef -2, ptr noundef @.str, ptr noundef @.str.5, ptr noundef @.str.3)
  store i32 -2, ptr %4, align 4
  store i32 1, ptr %10, align 4
  br label %68

22:                                               ; preds = %14
  %23 = load ptr, ptr %8, align 8, !tbaa !7
  %24 = getelementptr inbounds nuw %struct.IDAMemRec, ptr %23, i32 0, i32 176
  %25 = load ptr, ptr %24, align 8, !tbaa !9
  store ptr %25, ptr %9, align 8, !tbaa !20
  %26 = load ptr, ptr %9, align 8, !tbaa !20
  %27 = getelementptr inbounds nuw %struct.IDADlsMemRec, ptr %26, i32 0, i32 0
  %28 = load i32, ptr %27, align 8, !tbaa !29
  %29 = icmp eq i32 %28, 1
  br i1 %29, label %30, label %43

30:                                               ; preds = %22
  %31 = load ptr, ptr %9, align 8, !tbaa !20
  %32 = getelementptr inbounds nuw %struct.IDADlsMemRec, ptr %31, i32 0, i32 1
  %33 = load i64, ptr %32, align 8, !tbaa !30
  %34 = load ptr, ptr %9, align 8, !tbaa !20
  %35 = getelementptr inbounds nuw %struct.IDADlsMemRec, ptr %34, i32 0, i32 1
  %36 = load i64, ptr %35, align 8, !tbaa !30
  %37 = mul nsw i64 %33, %36
  %38 = load ptr, ptr %6, align 8, !tbaa !28
  store i64 %37, ptr %38, align 8, !tbaa !31
  %39 = load ptr, ptr %9, align 8, !tbaa !20
  %40 = getelementptr inbounds nuw %struct.IDADlsMemRec, ptr %39, i32 0, i32 1
  %41 = load i64, ptr %40, align 8, !tbaa !30
  %42 = load ptr, ptr %7, align 8, !tbaa !28
  store i64 %41, ptr %42, align 8, !tbaa !31
  br label %67

43:                                               ; preds = %22
  %44 = load ptr, ptr %9, align 8, !tbaa !20
  %45 = getelementptr inbounds nuw %struct.IDADlsMemRec, ptr %44, i32 0, i32 0
  %46 = load i32, ptr %45, align 8, !tbaa !29
  %47 = icmp eq i32 %46, 2
  br i1 %47, label %48, label %66

48:                                               ; preds = %43
  %49 = load ptr, ptr %9, align 8, !tbaa !20
  %50 = getelementptr inbounds nuw %struct.IDADlsMemRec, ptr %49, i32 0, i32 1
  %51 = load i64, ptr %50, align 8, !tbaa !30
  %52 = load ptr, ptr %9, align 8, !tbaa !20
  %53 = getelementptr inbounds nuw %struct.IDADlsMemRec, ptr %52, i32 0, i32 4
  %54 = load i64, ptr %53, align 8, !tbaa !32
  %55 = load ptr, ptr %9, align 8, !tbaa !20
  %56 = getelementptr inbounds nuw %struct.IDADlsMemRec, ptr %55, i32 0, i32 2
  %57 = load i64, ptr %56, align 8, !tbaa !33
  %58 = add nsw i64 %54, %57
  %59 = add nsw i64 %58, 1
  %60 = mul nsw i64 %51, %59
  %61 = load ptr, ptr %6, align 8, !tbaa !28
  store i64 %60, ptr %61, align 8, !tbaa !31
  %62 = load ptr, ptr %9, align 8, !tbaa !20
  %63 = getelementptr inbounds nuw %struct.IDADlsMemRec, ptr %62, i32 0, i32 1
  %64 = load i64, ptr %63, align 8, !tbaa !30
  %65 = load ptr, ptr %7, align 8, !tbaa !28
  store i64 %64, ptr %65, align 8, !tbaa !31
  br label %66

66:                                               ; preds = %48, %43
  br label %67

67:                                               ; preds = %66, %30
  store i32 0, ptr %4, align 4
  store i32 1, ptr %10, align 4
  br label %68

68:                                               ; preds = %67, %20, %13
  call void @llvm.lifetime.end.p0(i64 8, ptr %9) #6
  call void @llvm.lifetime.end.p0(i64 8, ptr %8) #6
  %69 = load i32, ptr %4, align 4
  ret i32 %69
}