; Function Attrs: nounwind uwtable
define range(i32 -2, 1) i32 @IDADlsGetWorkSpace(ptr noundef %0, ptr noundef writeonly captures(none) %1, ptr noundef writeonly captures(none) %2) local_unnamed_addr #0 {
  %4 = icmp eq ptr %0, null
  br i1 %4, label %5, label %6

5:                                                ; preds = %3
  tail call void (ptr, i32, ptr, ptr, ptr, ...) @IDAProcessError(ptr noundef null, i32 noundef -1, ptr noundef nonnull @.str, ptr noundef nonnull @.str.5, ptr noundef nonnull @.str.2) #7
  br label %29

6:                                                ; preds = %3
  %7 = getelementptr inbounds nuw i8, ptr %0, i64 1632
  %8 = load ptr, ptr %7, align 8, !tbaa !3
  %9 = icmp eq ptr %8, null
  br i1 %9, label %10, label %11

10:                                               ; preds = %6
  tail call void (ptr, i32, ptr, ptr, ptr, ...) @IDAProcessError(ptr noundef nonnull %0, i32 noundef -2, ptr noundef nonnull @.str, ptr noundef nonnull @.str.5, ptr noundef nonnull @.str.3) #7
  br label %29

11:                                               ; preds = %6
  %12 = load i32, ptr %8, align 8, !tbaa !23
  switch i32 %12, label %29 [
    i32 1, label %13
    i32 2, label %18
  ]

13:                                               ; preds = %11
  %14 = getelementptr inbounds nuw i8, ptr %8, i64 8
  %15 = load i64, ptr %14, align 8, !tbaa !24
  %16 = mul nsw i64 %15, %15
  store i64 %16, ptr %1, align 8, !tbaa !25
  %17 = load i64, ptr %14, align 8, !tbaa !24
  store i64 %17, ptr %2, align 8, !tbaa !25
  br label %29

18:                                               ; preds = %11
  %19 = getelementptr inbounds nuw i8, ptr %8, i64 8
  %20 = load i64, ptr %19, align 8, !tbaa !24
  %21 = getelementptr inbounds nuw i8, ptr %8, i64 32
  %22 = load i64, ptr %21, align 8, !tbaa !26
  %23 = getelementptr inbounds nuw i8, ptr %8, i64 16
  %24 = load i64, ptr %23, align 8, !tbaa !27
  %25 = add i64 %22, 1
  %26 = add i64 %25, %24
  %27 = mul nsw i64 %26, %20
  store i64 %27, ptr %1, align 8, !tbaa !25
  %28 = load i64, ptr %19, align 8, !tbaa !24
  store i64 %28, ptr %2, align 8, !tbaa !25
  br label %29

29:                                               ; preds = %13, %18, %11, %10, %5
  %.0 = phi i32 [ -1, %5 ], [ -2, %10 ], [ 0, %11 ], [ 0, %18 ], [ 0, %13 ]
  ret i32 %.0
}